; Function Attrs: mustprogress nounwind uwtable
define internal fastcc void @_ZN12_GLOBAL__N_115MachineVerifier6reportEPKcPKN4llvm14MachineOperandEjNS3_3LLTE(ptr noundef nonnull align 8 captures(none) dereferenceable(1840) %0, ptr noundef %1, ptr noundef nonnull %2, i32 noundef %3, i64 %4) unnamed_addr #0 align 2 {
  %6 = getelementptr inbounds nuw i8, ptr %2, i64 8
  %7 = load ptr, ptr %6, align 8
  tail call fastcc void @_ZN12_GLOBAL__N_115MachineVerifier6reportEPKcPKN4llvm12MachineInstrE(ptr noundef nonnull align 8 dereferenceable(1840) %0, ptr noundef %1, ptr noundef %7)
  %8 = tail call noundef nonnull align 8 dereferenceable(96) ptr @_ZN4llvm4errsEv() #18
  %9 = getelementptr inbounds nuw i8, ptr %8, i64 24
  %10 = load ptr, ptr %9, align 8
  %11 = getelementptr inbounds nuw i8, ptr %8, i64 32
  %12 = load ptr, ptr %11, align 8
  %13 = ptrtoint ptr %10 to i64
  %14 = ptrtoint ptr %12 to i64
  %15 = sub i64 %13, %14
  %16 = icmp ult i64 %15, 10
  br i1 %16, label %17, label %19

17:                                               ; preds = %5
  %18 = tail call noundef nonnull align 8 dereferenceable(48) ptr @_ZN4llvm11raw_ostream5writeEPKcm(ptr noundef nonnull align 8 dereferenceable(48) %8, ptr noundef nonnull @.str.278, i64 noundef 10) #18
  br label %_ZN4llvm11raw_ostreamlsEPKc.exit

19:                                               ; preds = %5
  tail call void @llvm.memcpy.p0.p0.i64(ptr noundef nonnull align 1 dereferenceable(10) %12, ptr noundef nonnull align 1 dereferenceable(10) @.str.278, i64 10, i1 false)
  %20 = load ptr, ptr %11, align 8
  %21 = getelementptr inbounds nuw i8, ptr %20, i64 10
  store ptr %21, ptr %11, align 8
  br label %_ZN4llvm11raw_ostreamlsEPKc.exit

_ZN4llvm11raw_ostreamlsEPKc.exit:                 ; preds = %17, %19
  %.0.i.i = phi ptr [ %18, %17 ], [ %8, %19 ]
  %22 = zext i32 %3 to i64
  %23 = tail call noundef nonnull align 8 dereferenceable(48) ptr @_ZN4llvm11raw_ostreamlsEm(ptr noundef nonnull align 8 dereferenceable(48) %.0.i.i, i64 noundef %22) #18
  %24 = getelementptr inbounds nuw i8, ptr %23, i64 24
  %25 = load ptr, ptr %24, align 8
  %26 = getelementptr inbounds nuw i8, ptr %23, i64 32
  %27 = load ptr, ptr %26, align 8
  %28 = ptrtoint ptr %25 to i64
  %29 = ptrtoint ptr %27 to i64
  %30 = sub i64 %28, %29
  %31 = icmp ult i64 %30, 4
  br i1 %31, label %32, label %34

32:                                               ; preds = %_ZN4llvm11raw_ostreamlsEPKc.exit
  %33 = tail call noundef nonnull align 8 dereferenceable(48) ptr @_ZN4llvm11raw_ostream5writeEPKcm(ptr noundef nonnull align 8 dereferenceable(48) %23, ptr noundef nonnull @.str.279, i64 noundef 4) #18
  br label %_ZN4llvm11raw_ostreamlsEPKc.exit7

34:                                               ; preds = %_ZN4llvm11raw_ostreamlsEPKc.exit
  store i32 538976314, ptr %27, align 1
  %35 = load ptr, ptr %26, align 8
  %36 = getelementptr inbounds nuw i8, ptr %35, i64 4
  store ptr %36, ptr %26, align 8
  br label %_ZN4llvm11raw_ostreamlsEPKc.exit7

_ZN4llvm11raw_ostreamlsEPKc.exit7:                ; preds = %32, %34
  %37 = tail call noundef nonnull align 8 dereferenceable(96) ptr @_ZN4llvm4errsEv() #18
  %38 = getelementptr inbounds nuw i8, ptr %0, i64 48
  %39 = load ptr, ptr %38, align 8
  tail call void @_ZNK4llvm14MachineOperand5printERNS_11raw_ostreamENS_3LLTEPKNS_18TargetRegisterInfoEPKNS_19TargetIntrinsicInfoE(ptr noundef nonnull align 8 dereferenceable(32) %2, ptr noundef nonnull align 8 dereferenceable(48) %37, i64 %4, ptr noundef %39, ptr noundef null) #18
  %40 = tail call noundef nonnull align 8 dereferenceable(96) ptr @_ZN4llvm4errsEv() #18
  %41 = getelementptr inbounds nuw i8, ptr %40, i64 24
  %42 = load ptr, ptr %41, align 8
  %43 = getelementptr inbounds nuw i8, ptr %40, i64 32
  %44 = load ptr, ptr %43, align 8
  %45 = icmp eq ptr %42, %44
  br i1 %45, label %46, label %48

46:                                               ; preds = %_ZN4llvm11raw_ostreamlsEPKc.exit7
  %47 = tail call noundef nonnull align 8 dereferenceable(48) ptr @_ZN4llvm11raw_ostream5writeEPKcm(ptr noundef nonnull align 8 dereferenceable(48) %40, ptr noundef nonnull @.str.16, i64 noundef 1) #18
  br label %_ZN4llvm11raw_ostreamlsEPKc.exit10

48:                                               ; preds = %_ZN4llvm11raw_ostreamlsEPKc.exit7
  store i8 10, ptr %44, align 1
  %49 = load ptr, ptr %43, align 8
  %50 = getelementptr inbounds nuw i8, ptr %49, i64 1
  store ptr %50, ptr %43, align 8
  br label %_ZN4llvm11raw_ostreamlsEPKc.exit10

_ZN4llvm11raw_ostreamlsEPKc.exit10:               ; preds = %46, %48
  ret void
}